; Function Attrs: mustprogress uwtable
define void @_ZN6icu_7518UnicodeSetIteratorC2ERKNS_10UnicodeSetE(ptr noundef nonnull align 8 dereferenceable(64) %this, ptr noundef nonnull align 8 dereferenceable(200) %uSet) unnamed_addr #1 align 2 personality ptr @__gxx_personality_v0 {
entry:
  store ptr getelementptr inbounds ({ [5 x ptr] }, ptr @_ZTVN6icu_7518UnicodeSetIteratorE, i64 0, i32 0, i64 2), ptr %this, align 8
  %cpString = getelementptr inbounds i8, ptr %this, i64 56
  store ptr null, ptr %cpString, align 8
  %set.i = getelementptr inbounds i8, ptr %this, i64 24
  store ptr %uSet, ptr %set.i, align 8
  %call.i.i1 = invoke noundef i32 @_ZNK6icu_7510UnicodeSet13getRangeCountEv(ptr noundef nonnull align 8 dereferenceable(200) %uSet)
          to label %call.i.i.noexc unwind label %lpad

call.i.i.noexc:                                   ; preds = %entry
  %sub.i.i = add nsw i32 %call.i.i1, -1
  %endRange3.i.i = getelementptr inbounds i8, ptr %this, i64 32
  store i32 %sub.i.i, ptr %endRange3.i.i, align 8
  %0 = load ptr, ptr %set.i, align 8
  %call5.i.i2 = invoke noundef i32 @_ZNK6icu_7510UnicodeSet11stringsSizeEv(ptr noundef nonnull align 8 dereferenceable(200) %0)
          to label %call5.i.i.noexc unwind label %lpad

call5.i.i.noexc:                                  ; preds = %call.i.i.noexc
  %.pre.i.i = load i32, ptr %endRange3.i.i, align 8
  %1 = icmp sgt i32 %.pre.i.i, -1
  %2 = getelementptr inbounds i8, ptr %this, i64 52
  store i32 %call5.i.i2, ptr %2, align 4
  %range.i.i = getelementptr inbounds i8, ptr %this, i64 36
  store i32 0, ptr %range.i.i, align 4
  %endElement.i.i = getelementptr inbounds i8, ptr %this, i64 40
  store i32 -1, ptr %endElement.i.i, align 8
  %nextElement.i.i = getelementptr inbounds i8, ptr %this, i64 44
  store i32 0, ptr %nextElement.i.i, align 4
  br i1 %1, label %if.then9.i.i, label %invoke.cont

if.then9.i.i:                                     ; preds = %call5.i.i.noexc
  %3 = load ptr, ptr %set.i, align 8
  %call.i.i.i3 = invoke noundef i32 @_ZNK6icu_7510UnicodeSet13getRangeStartEi(ptr noundef nonnull align 8 dereferenceable(200) %3, i32 noundef 0)
          to label %call.i.i.i.noexc unwind label %lpad

call.i.i.i.noexc:                                 ; preds = %if.then9.i.i
  store i32 %call.i.i.i3, ptr %nextElement.i.i, align 4
  %4 = load ptr, ptr %set.i, align 8
  %call3.i.i.i4 = invoke noundef i32 @_ZNK6icu_7510UnicodeSet11getRangeEndEi(ptr noundef nonnull align 8 dereferenceable(200) %4, i32 noundef 0)
          to label %call3.i.i.i.noexc unwind label %lpad

call3.i.i.i.noexc:                                ; preds = %call.i.i.i.noexc
  store i32 %call3.i.i.i4, ptr %endElement.i.i, align 8
  br label %invoke.cont

invoke.cont:                                      ; preds = %call3.i.i.i.noexc, %call5.i.i.noexc
  %nextString.i.i = getelementptr inbounds i8, ptr %this, i64 48
  store i32 0, ptr %nextString.i.i, align 8
  %string.i.i = getelementptr inbounds i8, ptr %this, i64 16
  store ptr null, ptr %string.i.i, align 8
  ret void

lpad:                                             ; preds = %call.i.i.i.noexc, %if.then9.i.i, %call.i.i.noexc, %entry
  %5 = landingpad { ptr, i32 }
          cleanup
  tail call void @_ZN6icu_757UObjectD2Ev(ptr noundef nonnull align 8 dereferenceable(8) %this) #7
  resume { ptr, i32 } %5
}